target datalayout = "e-m:e-p270:32:32-p271:32:32-p272:64:64-i64:64-i128:128-f80:128-n8:16:32:64-S128"
target triple = "x86_64-pc-linux-gnu"

%"class.std::__cxx11::basic_string" = type { %"struct.std::__cxx11::basic_string<char>::_Alloc_hider", i64, %union.anon }
%"struct.std::__cxx11::basic_string<char>::_Alloc_hider" = type { ptr }
%union.anon = type { i64, [8 x i8] }
%"class.fmt::v11::basic_format_string" = type { %"class.fmt::v11::basic_string_view" }
%"class.fmt::v11::basic_string_view" = type { ptr, i64 }
%"struct.vcpkg::LineInfo" = type { i32, ptr }
%"class.fmt::v11::basic_format_args" = type { i64, %union.anon.1 }
%union.anon.1 = type { ptr }
%"struct.fmt::v11::detail::format_arg_store.10" = type { [2 x %"class.fmt::v11::detail::value"] }
%"class.fmt::v11::detail::value" = type { %union.anon.2 }
%union.anon.2 = type { i128 }
%"struct.fmt::v11::detail::arg_mapper" = type { i8 }
%"struct.fmt::v11::detail::string_value" = type { ptr, i64 }

@.str = private unnamed_addr constant [7 x i8] c"{}({})\00", align 1

; Function Attrs: alwaysinline mustprogress nounwind uwtable
define linkonce_odr dso_local void @_ZN3fmt3v116detail5valueINS0_7contextEEC2Ei(ptr noundef nonnull align 16 dereferenceable(16) %0, i32 noundef %1) unnamed_addr #11 comdat align 2 {
  %3 = alloca ptr, align 8
  %4 = alloca i32, align 4
  store ptr %0, ptr %3, align 8, !tbaa !57
  store i32 %1, ptr %4, align 4, !tbaa !18
  %5 = load ptr, ptr %3, align 8
  %6 = getelementptr inbounds nuw %"class.fmt::v11::detail::value", ptr %5, i32 0, i32 0
  %7 = load i32, ptr %4, align 4, !tbaa !18
  store i32 %7, ptr %6, align 16, !tbaa !34
  ret void
}

; Function Attrs: alwaysinline mustprogress nounwind uwtable
define linkonce_odr dso_local noundef i32 @_ZN3fmt3v116detail10arg_mapperINS0_7contextEE3mapEi(ptr noundef nonnull align 1 dereferenceable(1) %0, i32 noundef %1) #11 comdat align 2 {
  %3 = alloca ptr, align 8
  %4 = alloca i32, align 4
  store ptr %0, ptr %3, align 8, !tbaa !55
  store i32 %1, ptr %4, align 4, !tbaa !18
  %5 = load i32, ptr %4, align 4, !tbaa !18
  ret i32 %5
}

; Function Attrs: alwaysinline mustprogress nounwind uwtable
define linkonce_odr dso_local void @_ZN3fmt3v116detail5valueINS0_7contextEEC2EPKc(ptr noundef nonnull align 16 dereferenceable(16) %0, ptr noundef %1) unnamed_addr #11 comdat align 2 {
  %3 = alloca ptr, align 8
  %4 = alloca ptr, align 8
  store ptr %0, ptr %3, align 8, !tbaa !57
  store ptr %1, ptr %4, align 8, !tbaa !16
  %5 = load ptr, ptr %3, align 8
  %6 = load ptr, ptr %4, align 8, !tbaa !16
  %7 = getelementptr inbounds nuw %"class.fmt::v11::detail::value", ptr %5, i32 0, i32 0
  %8 = getelementptr inbounds nuw %"struct.fmt::v11::detail::string_value", ptr %7, i32 0, i32 0
  store ptr %6, ptr %8, align 16, !tbaa !34
  ret void
}

; Function Attrs: alwaysinline mustprogress nounwind uwtable
define linkonce_odr dso_local noundef ptr @_ZN3fmt3v116detail10arg_mapperINS0_7contextEE3mapEPKc(ptr noundef nonnull align 1 dereferenceable(1) %0, ptr noundef %1) #11 comdat align 2 {
  %3 = alloca ptr, align 8
  %4 = alloca ptr, align 8
  store ptr %0, ptr %3, align 8, !tbaa !55
  store ptr %1, ptr %4, align 8, !tbaa !16
  %5 = load ptr, ptr %4, align 8, !tbaa !16
  ret ptr %5
}

; Function Attrs: mustprogress uwtable
define linkonce_odr dso_local { i64, i64 } @_ZN3fmt3v116detail8make_argILb1ENS0_7contextEKiTnNSt9enable_ifIXT_EiE4typeELi0EEENS1_5valueIT0_EERT1_(ptr noundef nonnull align 4 dereferenceable(4) %0) #0 comdat {
  %2 = alloca %"class.fmt::v11::detail::value", align 16
  %3 = alloca ptr, align 8
  %4 = alloca %"struct.fmt::v11::detail::arg_mapper", align 1
  store ptr %0, ptr %3, align 8, !tbaa !12
  call void @llvm.lifetime.start.p0(i64 1, ptr %4) #18
  %5 = load ptr, ptr %3, align 8, !tbaa !12
  %6 = load i32, ptr %5, align 4, !tbaa !18
  %7 = call noundef i32 @_ZN3fmt3v116detail10arg_mapperINS0_7contextEE3mapEi(ptr noundef nonnull align 1 dereferenceable(1) %4, i32 noundef %6)
  call void @_ZN3fmt3v116detail5valueINS0_7contextEEC2Ei(ptr noundef nonnull align 16 dereferenceable(16) %2, i32 noundef %7)
  call void @llvm.lifetime.end.p0(i64 1, ptr %4) #18
  %8 = getelementptr inbounds nuw %"class.fmt::v11::detail::value", ptr %2, i32 0, i32 0
  %9 = getelementptr inbounds nuw %union.anon.2, ptr %8, i32 0, i32 0
  %10 = load { i64, i64 }, ptr %9, align 16
  ret { i64, i64 } %10
}

; Function Attrs: mustprogress uwtable
define linkonce_odr dso_local { i64, i64 } @_ZN3fmt3v116detail8make_argILb1ENS0_7contextEKPKcTnNSt9enable_ifIXT_EiE4typeELi0EEENS1_5valueIT0_EERT1_(ptr noundef nonnull align 8 dereferenceable(8) %0) #0 comdat {
  %2 = alloca %"class.fmt::v11::detail::value", align 16
  %3 = alloca ptr, align 8
  %4 = alloca %"struct.fmt::v11::detail::arg_mapper", align 1
  store ptr %0, ptr %3, align 8, !tbaa !9
  call void @llvm.lifetime.start.p0(i64 1, ptr %4) #18
  %5 = load ptr, ptr %3, align 8, !tbaa !9
  %6 = load ptr, ptr %5, align 8, !tbaa !16
  %7 = call noundef ptr @_ZN3fmt3v116detail10arg_mapperINS0_7contextEE3mapEPKc(ptr noundef nonnull align 1 dereferenceable(1) %4, ptr noundef %6)
  call void @_ZN3fmt3v116detail5valueINS0_7contextEEC2EPKc(ptr noundef nonnull align 16 dereferenceable(16) %2, ptr noundef %7)
  call void @llvm.lifetime.end.p0(i64 1, ptr %4) #18
  %8 = getelementptr inbounds nuw %"class.fmt::v11::detail::value", ptr %2, i32 0, i32 0
  %9 = getelementptr inbounds nuw %union.anon.2, ptr %8, i32 0, i32 0
  %10 = load { i64, i64 }, ptr %9, align 16
  ret { i64, i64 } %10
}

; Function Attrs: alwaysinline mustprogress nounwind uwtable
define linkonce_odr dso_local void @"_ZN3fmt3v1117basic_format_argsINS0_7contextEEC2ILm2ELm0ELy28ETnNSt9enable_ifIXleT_LNS0_6detail3$_0E15EEiE4typeELi0EEERKNS6_16format_arg_storeIS2_XT_EXT0_EXT1_EEE"(ptr noundef nonnull align 8 dereferenceable(16) %0, ptr noundef nonnull align 16 dereferenceable(32) %1) unnamed_addr #11 comdat align 2 {
  %3 = alloca ptr, align 8
  %4 = alloca ptr, align 8
  store ptr %0, ptr %3, align 8, !tbaa !48
  store ptr %1, ptr %4, align 8, !tbaa !233
  %5 = load ptr, ptr %3, align 8
  %6 = getelementptr inbounds nuw %"class.fmt::v11::basic_format_args", ptr %5, i32 0, i32 0
  store i64 28, ptr %6, align 8, !tbaa !52
  %7 = getelementptr inbounds nuw %"class.fmt::v11::basic_format_args", ptr %5, i32 0, i32 1
  %8 = load ptr, ptr %4, align 8, !tbaa !233
  %9 = getelementptr inbounds nuw %"struct.fmt::v11::detail::format_arg_store.10", ptr %8, i32 0, i32 0
  %10 = getelementptr inbounds [2 x %"class.fmt::v11::detail::value"], ptr %9, i64 0, i64 0
  %11 = getelementptr inbounds %"class.fmt::v11::detail::value", ptr %10, i64 0
  store ptr %11, ptr %7, align 8, !tbaa !34
  ret void
}

; Function Attrs: alwaysinline mustprogress uwtable
define linkonce_odr dso_local void @_ZN3fmt3v1116make_format_argsINS0_7contextEJKPKcKiELm2ELm0ELy28ETnNSt9enable_ifIXeqT2_Li0EEiE4typeELi0EEENS0_6detail16format_arg_storeIT_XT1_ELm0EXT3_EEEDpRT0_(ptr dead_on_unwind noalias writable sret(%"struct.fmt::v11::detail::format_arg_store.10") align 16 %0, ptr noundef nonnull align 8 dereferenceable(8) %1, ptr noundef nonnull align 4 dereferenceable(4) %2) #1 comdat {
  %4 = alloca ptr, align 8
  %5 = alloca ptr, align 8
  store ptr %1, ptr %4, align 8, !tbaa !9
  store ptr %2, ptr %5, align 8, !tbaa !12
  %6 = getelementptr inbounds nuw %"struct.fmt::v11::detail::format_arg_store.10", ptr %0, i32 0, i32 0
  %7 = load ptr, ptr %4, align 8, !tbaa !9
  %8 = call { i64, i64 } @_ZN3fmt3v116detail8make_argILb1ENS0_7contextEKPKcTnNSt9enable_ifIXT_EiE4typeELi0EEENS1_5valueIT0_EERT1_(ptr noundef nonnull align 8 dereferenceable(8) %7)
  %9 = getelementptr inbounds nuw %"class.fmt::v11::detail::value", ptr %6, i32 0, i32 0
  %10 = getelementptr inbounds nuw %union.anon.2, ptr %9, i32 0, i32 0
  %11 = getelementptr inbounds nuw { i64, i64 }, ptr %10, i32 0, i32 0
  %12 = extractvalue { i64, i64 } %8, 0
  store i64 %12, ptr %11, align 16
  %13 = getelementptr inbounds nuw { i64, i64 }, ptr %10, i32 0, i32 1
  %14 = extractvalue { i64, i64 } %8, 1
  store i64 %14, ptr %13, align 8
  %15 = getelementptr inbounds %"class.fmt::v11::detail::value", ptr %6, i64 1
  %16 = load ptr, ptr %5, align 8, !tbaa !12
  %17 = call { i64, i64 } @_ZN3fmt3v116detail8make_argILb1ENS0_7contextEKiTnNSt9enable_ifIXT_EiE4typeELi0EEENS1_5valueIT0_EERT1_(ptr noundef nonnull align 4 dereferenceable(4) %16)
  %18 = getelementptr inbounds nuw %"class.fmt::v11::detail::value", ptr %15, i32 0, i32 0
  %19 = getelementptr inbounds nuw %union.anon.2, ptr %18, i32 0, i32 0
  %20 = getelementptr inbounds nuw { i64, i64 }, ptr %19, i32 0, i32 0
  %21 = extractvalue { i64, i64 } %17, 0
  store i64 %21, ptr %20, align 16
  %22 = getelementptr inbounds nuw { i64, i64 }, ptr %19, i32 0, i32 1
  %23 = extractvalue { i64, i64 } %17, 1
  store i64 %23, ptr %22, align 8
  ret void
}

; Function Attrs: alwaysinline mustprogress nounwind uwtable
define linkonce_odr dso_local { ptr, i64 } @_ZNK3fmt3v1119basic_format_stringIcJRKPKcRKiEEcvNS0_17basic_string_viewIcEEEv(ptr noundef nonnull align 8 dereferenceable(16) %0) #11 comdat align 2 {
  %2 = alloca %"class.fmt::v11::basic_string_view", align 8
  %3 = alloca ptr, align 8
  store ptr %0, ptr %3, align 8, !tbaa !14
  %4 = load ptr, ptr %3, align 8
  %5 = getelementptr inbounds nuw %"class.fmt::v11::basic_format_string", ptr %4, i32 0, i32 0
  call void @llvm.memcpy.p0.p0.i64(ptr align 8 %2, ptr align 8 %5, i64 16, i1 false), !tbaa.struct !33
  %6 = load { ptr, i64 }, ptr %2, align 8
  ret { ptr, i64 } %6
}

; Function Attrs: alwaysinline mustprogress nounwind uwtable
define linkonce_odr dso_local void @_ZN3fmt3v116detail19check_format_stringIJRKPKcRKiEA7_cTnNSt9enable_ifIXntsr17is_compile_stringIT0_EE5valueEiE4typeELi0EEEvRKSB_(ptr noundef nonnull align 1 dereferenceable(7) %0) #11 comdat {
  %2 = alloca ptr, align 8
  store ptr %0, ptr %2, align 8, !tbaa !16
  ret void
}

; Function Attrs: mustprogress nounwind uwtable
define linkonce_odr dso_local void @_ZN3fmt3v1117basic_string_viewIcEC2EPKc(ptr noundef nonnull align 8 dereferenceable(16) %0, ptr noundef %1) unnamed_addr #3 comdat align 2 {
  %3 = alloca ptr, align 8
  %4 = alloca ptr, align 8
  store ptr %0, ptr %3, align 8, !tbaa !94
  store ptr %1, ptr %4, align 8, !tbaa !16
  %5 = load ptr, ptr %3, align 8
  %6 = getelementptr inbounds nuw %"class.fmt::v11::basic_string_view", ptr %5, i32 0, i32 0
  %7 = load ptr, ptr %4, align 8, !tbaa !16
  store ptr %7, ptr %6, align 8, !tbaa !96
  %8 = getelementptr inbounds nuw %"class.fmt::v11::basic_string_view", ptr %5, i32 0, i32 1
  %9 = load ptr, ptr %4, align 8, !tbaa !16
  %10 = call i64 @strlen(ptr noundef %9) #21
  store i64 %10, ptr %8, align 8, !tbaa !98
  ret void
}

; Function Attrs: alwaysinline mustprogress uwtable
define linkonce_odr dso_local void @_ZN3fmt3v116formatIJRKPKcRKiEEENSt7__cxx1112basic_stringIcSt11char_traitsIcESaIcEEENS0_19basic_format_stringIcJDpNS0_13type_identityIT_E4typeEEEEDpOSG_(ptr dead_on_unwind noalias writable sret(%"class.std::__cxx11::basic_string") align 8 %0, ptr %1, i64 %2, ptr noundef nonnull align 8 dereferenceable(8) %3, ptr noundef nonnull align 4 dereferenceable(4) %4) #1 comdat {
  %6 = alloca ptr, align 8
  %7 = alloca %"class.fmt::v11::basic_format_string", align 8
  %8 = alloca ptr, align 8
  %9 = alloca ptr, align 8
  %10 = alloca %"class.fmt::v11::basic_string_view", align 8
  %11 = alloca %"class.fmt::v11::basic_format_args", align 8
  %12 = alloca %"struct.fmt::v11::detail::format_arg_store.10", align 16
  store ptr %0, ptr %6, align 8
  %13 = getelementptr inbounds nuw { ptr, i64 }, ptr %7, i32 0, i32 0
  store ptr %1, ptr %13, align 8
  %14 = getelementptr inbounds nuw { ptr, i64 }, ptr %7, i32 0, i32 1
  store i64 %2, ptr %14, align 8
  store ptr %3, ptr %8, align 8, !tbaa !9
  store ptr %4, ptr %9, align 8, !tbaa !12
  %15 = call { ptr, i64 } @_ZNK3fmt3v1119basic_format_stringIcJRKPKcRKiEEcvNS0_17basic_string_viewIcEEEv(ptr noundef nonnull align 8 dereferenceable(16) %7)
  %16 = getelementptr inbounds nuw { ptr, i64 }, ptr %10, i32 0, i32 0
  %17 = extractvalue { ptr, i64 } %15, 0
  store ptr %17, ptr %16, align 8
  %18 = getelementptr inbounds nuw { ptr, i64 }, ptr %10, i32 0, i32 1
  %19 = extractvalue { ptr, i64 } %15, 1
  store i64 %19, ptr %18, align 8
  call void @llvm.lifetime.start.p0(i64 32, ptr %12) #18
  %20 = load ptr, ptr %8, align 8, !tbaa !9
  %21 = load ptr, ptr %9, align 8, !tbaa !12
  call void @_ZN3fmt3v1116make_format_argsINS0_7contextEJKPKcKiELm2ELm0ELy28ETnNSt9enable_ifIXeqT2_Li0EEiE4typeELi0EEENS0_6detail16format_arg_storeIT_XT1_ELm0EXT3_EEEDpRT0_(ptr dead_on_unwind writable sret(%"struct.fmt::v11::detail::format_arg_store.10") align 16 %12, ptr noundef nonnull align 8 dereferenceable(8) %20, ptr noundef nonnull align 4 dereferenceable(4) %21)
  call void @"_ZN3fmt3v1117basic_format_argsINS0_7contextEEC2ILm2ELm0ELy28ETnNSt9enable_ifIXleT_LNS0_6detail3$_0E15EEiE4typeELi0EEERKNS6_16format_arg_storeIS2_XT_EXT0_EXT1_EEE"(ptr noundef nonnull align 8 dereferenceable(16) %11, ptr noundef nonnull align 16 dereferenceable(32) %12)
  %22 = getelementptr inbounds nuw { ptr, i64 }, ptr %10, i32 0, i32 0
  %23 = load ptr, ptr %22, align 8
  %24 = getelementptr inbounds nuw { ptr, i64 }, ptr %10, i32 0, i32 1
  %25 = load i64, ptr %24, align 8
  %26 = getelementptr inbounds nuw { i64, ptr }, ptr %11, i32 0, i32 0
  %27 = load i64, ptr %26, align 8
  %28 = getelementptr inbounds nuw { i64, ptr }, ptr %11, i32 0, i32 1
  %29 = load ptr, ptr %28, align 8
  call void @_ZN3fmt3v117vformatB5cxx11ENS0_17basic_string_viewIcEENS0_17basic_format_argsINS0_7contextEEE(ptr dead_on_unwind writable sret(%"class.std::__cxx11::basic_string") align 8 %0, ptr %23, i64 %25, i64 %27, ptr %29)
  call void @llvm.lifetime.end.p0(i64 32, ptr %12) #18
  ret void
}

; Function Attrs: alwaysinline mustprogress uwtable
define linkonce_odr dso_local void @_ZN3fmt3v1119basic_format_stringIcJRKPKcRKiEEC2IA7_cTnNSt9enable_ifIXoosr3std14is_convertibleIRKT_NS0_17basic_string_viewIcEEEE5valueaasr6detail17is_compile_stringISC_EE5valuesr3std16is_constructibleISG_SE_EE5valueEiE4typeELi0EEESE_(ptr noundef nonnull align 8 dereferenceable(16) %0, ptr noundef nonnull align 1 dereferenceable(7) %1) unnamed_addr #1 comdat align 2 {
  %3 = alloca ptr, align 8
  %4 = alloca ptr, align 8
  store ptr %0, ptr %3, align 8, !tbaa !14
  store ptr %1, ptr %4, align 8, !tbaa !16
  %5 = load ptr, ptr %3, align 8
  %6 = getelementptr inbounds nuw %"class.fmt::v11::basic_format_string", ptr %5, i32 0, i32 0
  %7 = load ptr, ptr %4, align 8, !tbaa !16
  %8 = getelementptr inbounds [7 x i8], ptr %7, i64 0, i64 0
  call void @_ZN3fmt3v1117basic_string_viewIcEC2EPKc(ptr noundef nonnull align 8 dereferenceable(16) %6, ptr noundef %8)
  %9 = load ptr, ptr %4, align 8, !tbaa !16
  call void @_ZN3fmt3v116detail19check_format_stringIJRKPKcRKiEA7_cTnNSt9enable_ifIXntsr17is_compile_stringIT0_EE5valueEiE4typeELi0EEEvRKSB_(ptr noundef nonnull align 1 dereferenceable(7) %9)
  ret void
}

; Function Attrs: mustprogress uwtable
define dso_local void @_ZNK5vcpkg8LineInfo9to_stringB5cxx11Ev(ptr dead_on_unwind noalias writable sret(%"class.std::__cxx11::basic_string") align 8 %0, ptr noundef nonnull align 8 dereferenceable(16) %1) #0 align 2 {
  %3 = alloca ptr, align 8
  %4 = alloca ptr, align 8
  %5 = alloca %"class.fmt::v11::basic_format_string", align 8
  store ptr %0, ptr %3, align 8
  store ptr %1, ptr %4, align 8, !tbaa !4
  %6 = load ptr, ptr %4, align 8
  call void @_ZN3fmt3v1119basic_format_stringIcJRKPKcRKiEEC2IA7_cTnNSt9enable_ifIXoosr3std14is_convertibleIRKT_NS0_17basic_string_viewIcEEEE5valueaasr6detail17is_compile_stringISC_EE5valuesr3std16is_constructibleISG_SE_EE5valueEiE4typeELi0EEESE_(ptr noundef nonnull align 8 dereferenceable(16) %5, ptr noundef nonnull align 1 dereferenceable(7) @.str)
  %7 = getelementptr inbounds nuw %"struct.vcpkg::LineInfo", ptr %6, i32 0, i32 1
  %8 = getelementptr inbounds nuw %"struct.vcpkg::LineInfo", ptr %6, i32 0, i32 0
  %9 = getelementptr inbounds nuw { ptr, i64 }, ptr %5, i32 0, i32 0
  %10 = load ptr, ptr %9, align 8
  %11 = getelementptr inbounds nuw { ptr, i64 }, ptr %5, i32 0, i32 1
  %12 = load i64, ptr %11, align 8
  call void @_ZN3fmt3v116formatIJRKPKcRKiEEENSt7__cxx1112basic_stringIcSt11char_traitsIcESaIcEEENS0_19basic_format_stringIcJDpNS0_13type_identityIT_E4typeEEEEDpOSG_(ptr dead_on_unwind writable sret(%"class.std::__cxx11::basic_string") align 8 %0, ptr %10, i64 %12, ptr noundef nonnull align 8 dereferenceable(8) %7, ptr noundef nonnull align 4 dereferenceable(4) %8)
  ret void
}