; Function Attrs: mustprogress uwtable
define dso_local void @_ZNK5vcpkg8LineInfo9to_stringB5cxx11Ev(ptr dead_on_unwind noalias writable sret(%"class.std::__cxx11::basic_string") align 8 %0, ptr noundef nonnull readonly align 8 captures(none) dereferenceable(16) %1) local_unnamed_addr #0 align 2 {
  %3 = alloca %"struct.fmt::v11::detail::format_arg_store.10", align 16
  %4 = getelementptr inbounds nuw i8, ptr %1, i64 8
  call void @llvm.lifetime.start.p0(i64 32, ptr nonnull %3) #20, !noalias !4
  tail call void @llvm.experimental.noalias.scope.decl(metadata !7)
  %5 = load ptr, ptr %4, align 8, !tbaa !10, !noalias !15
  %6 = ptrtoint ptr %5 to i64
  store i64 %6, ptr %3, align 16, !alias.scope !7, !noalias !4
  %7 = getelementptr inbounds nuw i8, ptr %3, i64 16
  %8 = load i32, ptr %1, align 8, !tbaa !16, !noalias !15
  %.sroa.01.0.insert.ext.i = zext i32 %8 to i64
  store i64 %.sroa.01.0.insert.ext.i, ptr %7, align 16, !alias.scope !7, !noalias !4
  call void @_ZN3fmt3v117vformatB5cxx11ENS0_17basic_string_viewIcEENS0_17basic_format_argsINS0_7contextEEE(ptr dead_on_unwind writable sret(%"class.std::__cxx11::basic_string") align 8 %0, ptr nonnull @.str, i64 6, i64 28, ptr nonnull %3)
  call void @llvm.lifetime.end.p0(i64 32, ptr nonnull %3) #20, !noalias !4
  ret void
}